Microchip MPLAB XC8 Compiler V1.34 ()

Linker command line:

-W-3 --edf=C:\Program Files (x86)\Microchip\xc8\v1.34\dat\en_msgs.txt -cs \
  -h+dist/default/production\driver_test.X.production.sym \
  --cmf=dist/default/production\driver_test.X.production.cmf -z -Q16F1938 \
  -oC:\Users\MORIYAMA\AppData\Local\Temp\s6g0.6 \
  -Mdist/default/production/driver_test.X.production.map -E1 -ver=XC8 \
  -ASTACK=02130h-023efh -pstack=STACK -ACODE=00h-07FFhx8 \
  -ASTRCODE=00h-03FFFh -ASTRING=00h-0FFhx64 -ACONST=00h-0FFhx64 \
  -AENTRY=00h-0FFhx64 -ACOMMON=070h-07Fh -ABANK0=020h-06Fh \
  -ABANK1=0A0h-0EFh -ABANK2=0120h-016Fh -ABANK3=01A0h-01EFh \
  -ABANK4=0220h-026Fh -ABANK5=02A0h-02EFh -ABANK6=0320h-036Fh \
  -ABANK7=03A0h-03EFh -ABANK8=0420h-046Fh -ABANK9=04A0h-04EFh \
  -ABANK10=0520h-056Fh -ABANK11=05A0h-05EFh -ABANK12=0620h-064Fh \
  -ABIGRAM=02000h-023EFh \
  -ARAM=020h-06Fh,0A0h-0EFh,0120h-016Fh,01A0h-01EFh,0220h-026Fh,02A0h-02EFh,0320h-036Fh,03A0h-03EFh,0420h-046Fh,04A0h-04EFh,0520h-056Fh,05A0h-05EFh,0620h-064Fh \
  -AABS1=020h-07Fh,0A0h-0EFh,0120h-016Fh,01A0h-01EFh,0220h-026Fh,02A0h-02EFh,0320h-036Fh,03A0h-03EFh,0420h-046Fh,04A0h-04EFh,0520h-056Fh,05A0h-05EFh,0620h-064Fh \
  -ASFR0=00h-01Fh -ASFR1=080h-09Fh -ASFR2=0100h-011Fh -ASFR3=0180h-019Fh \
  -ASFR4=0200h-021Fh -ASFR5=0280h-029Fh -ASFR6=0300h-031Fh \
  -ASFR7=0380h-039Fh -ASFR8=0400h-041Fh -ASFR9=0480h-049Fh \
  -ASFR10=0500h-051Fh -ASFR11=0580h-059Fh -ASFR12=0600h-061Fh \
  -ASFR13=0680h-06EFh -ASFR14=0700h-076Fh -ASFR15=0780h-07EFh \
  -ASFR16=0800h-086Fh -ASFR17=0880h-08EFh -ASFR18=0900h-096Fh \
  -ASFR19=0980h-09EFh -ASFR20=0A00h-0A6Fh -ASFR21=0A80h-0AEFh \
  -ASFR22=0B00h-0B6Fh -ASFR23=0B80h-0BEFh -ASFR24=0C00h-0C6Fh \
  -ASFR25=0C80h-0CEFh -ASFR26=0D00h-0D6Fh -ASFR27=0D80h-0DEFh \
  -ASFR28=0E00h-0E6Fh -ASFR29=0E80h-0EEFh -ASFR30=0F00h-0F6Fh \
  -ASFR31=0F80h-0FEFh -preset_vec=00h,intentry=04h,init,end_init \
  -ppowerup=CODE -pcinit=CODE -pfunctab=CODE -ACONFIG=08007h-08008h \
  -pconfig=CONFIG -DCONFIG=2 -AIDLOC=08000h-08003h -pidloc=IDLOC -DIDLOC=2 \
  -AEEDATA=00h-0FFh/0F000h -peeprom_data=EEDATA -DEEDATA=2 -DCODE=2 \
  -DSTRCODE=2 -DSTRING=2 -DCONST=2 -DENTRY=2 -k \
  C:\Users\MORIYAMA\AppData\Local\Temp\s6g0.obj \
  dist/default/production\driver_test.X.production.obj 

Object code version is 3.11

Machine type is 16F1938



                Name                               Link     Load   Length Selector   Space Scale
C:\Users\MORIYAMA\AppData\Local\Temp\s6g0.obj
                end_init                             13       13        2        8       0
                reset_vec                             0        0        2        0       0
                config                             8007     8007        2    1000E       0
dist/default/production\driver_test.X.production.obj
                cinit                                15       15       1F        8       0
                intentry                              4        4        F        8       0
                text29                              E93      E93       1F     1D26       0
                text27                              E75      E75       1E     1CEA       0
                text26                              DFD      DFD        E     1BFA       0
                text25                              5B5      5B5       6B        8       0
                text24                              620      620       67        8       0
                text23                              7DD      7DD       22        8       0
                text22                              400      400       A9        8       0
                text21                              7A0      7A0       3D        8       0
                text20                              1A8      1A8       F6        8       0
                text19                              FC4      FC4       3C     1F88       0
                text18                              4A9      4A9       87        8       0
                text17                              F8E      F8E       36     1F1C       0
                text16                              530      530       85        8       0
                text15                              719      719       47        8       0
                text14                              34F      34F       B1        8       0
                text13                              29E      29E       B1        8       0
                text12                              E59      E59       1C     1CB2       0
                text11                              E3E      E3E       1B     1C7C       0
                text10                              E0B      E0B       19     1C16       0
                text9                               ED7      ED7       27     1DAE       0
                text8                               EB2      EB2       25     1D64       0
                text7                               E24      E24       1A     1C48       0
                text6                               EFE      EFE       2F     1DFC       0
                text5                               F2D      F2D       2F     1E5A       0
                text4                               6D0      6D0       49        8       0
                text3                               F5C      F5C       32     1EB8       0
                text2                               687      687       49        8       0
                text1                               DF5      DF5        8     1BEA       0
                maintext                             34       34      174        8       0
                cstackBANK0                          20       20       46       20       1
                cstackCOMMON                         70       70        8       70       1
                cstackBANK1                          A0       A0       48       A0       1
                inittext                            DE9      DE9        6     1BD2       0
                clrtext                             DEF      DEF        6     1BDE       0
                bssBANK3                            1A0      1A0       40      1A0       1
                dataBANK2                           120      120       40      120       1
                bssBANK0                             66       66        6       20       1
                bssCOMMON                            78       78        3       70       1
                stringtext                         1000     1000       17       20       0
                idataBANK2                          760      760       40        8       0

TOTAL           Name                               Link     Load   Length     Space
        CLASS   STACK          

        CLASS   CODE           
                end_init                             13       13        2         0
                cinit                                15       15       1F         0
                intentry                              4        4        F         0
                reset_vec                             0        0        2         0
                text29                              E93      E93       1F         0
                text27                              E75      E75       1E         0
                text26                              DFD      DFD        E         0
                text25                              5B5      5B5       6B         0
                text24                              620      620       67         0
                text23                              7DD      7DD       22         0
                text22                              400      400       A9         0
                text21                              7A0      7A0       3D         0
                text20                              1A8      1A8       F6         0
                text19                              FC4      FC4       3C         0
                text18                              4A9      4A9       87         0
                text17                              F8E      F8E       36         0
                text16                              530      530       85         0
                text15                              719      719       47         0
                text14                              34F      34F       B1         0
                text13                              29E      29E       B1         0
                text12                              E59      E59       1C         0
                text11                              E3E      E3E       1B         0
                text10                              E0B      E0B       19         0
                text9                               ED7      ED7       27         0
                text8                               EB2      EB2       25         0
                text7                               E24      E24       1A         0
                text6                               EFE      EFE       2F         0
                text5                               F2D      F2D       2F         0
                text4                               6D0      6D0       49         0
                text3                               F5C      F5C       32         0
                text2                               687      687       49         0
                text1                               DF5      DF5        8         0
                maintext                             34       34      174         0
                inittext                            DE9      DE9        6         0
                clrtext                             DEF      DEF        6         0
                idataBANK2                          760      760       40         0

        CLASS   STRCODE        
                stringtext                         1000     1000       17         0

        CLASS   STRING         

        CLASS   CONST          

        CLASS   ENTRY          

        CLASS   COMMON         
                cstackCOMMON                         70       70        8         1
                bssCOMMON                            78       78        3         1

        CLASS   BANK0          
                cstackBANK0                          20       20       46         1
                bssBANK0                             66       66        6         1

        CLASS   BANK1          
                cstackBANK1                          A0       A0       48         1

        CLASS   BANK2          
                dataBANK2                           120      120       40         1

        CLASS   BANK3          
                bssBANK3                            1A0      1A0       40         1

        CLASS   BANK4          

        CLASS   BANK5          

        CLASS   BANK6          

        CLASS   BANK7          

        CLASS   BANK8          

        CLASS   BANK9          

        CLASS   BANK10         

        CLASS   BANK11         

        CLASS   BANK12         

        CLASS   BIGRAM         

        CLASS   RAM            

        CLASS   ABS1           
                abs_s1                               7E       7E        2         1

        CLASS   SFR0           

        CLASS   SFR1           

        CLASS   SFR2           

        CLASS   SFR3           

        CLASS   SFR4           

        CLASS   SFR5           

        CLASS   SFR6           

        CLASS   SFR7           

        CLASS   SFR8           

        CLASS   SFR9           

        CLASS   SFR10          

        CLASS   SFR11          

        CLASS   SFR12          

        CLASS   SFR13          

        CLASS   SFR14          

        CLASS   SFR15          

        CLASS   SFR16          

        CLASS   SFR17          

        CLASS   SFR18          

        CLASS   SFR19          

        CLASS   SFR20          

        CLASS   SFR21          

        CLASS   SFR22          

        CLASS   SFR23          

        CLASS   SFR24          

        CLASS   SFR25          

        CLASS   SFR26          

        CLASS   SFR27          

        CLASS   SFR28          

        CLASS   SFR29          

        CLASS   SFR30          

        CLASS   SFR31          

        CLASS   CONFIG         
                config                             8007     8007        2         0

        CLASS   IDLOC          

        CLASS   EEDATA         

        CLASS   BANK31         

        CLASS   BANK30         

        CLASS   BANK29         

        CLASS   BANK28         

        CLASS   BANK27         

        CLASS   BANK26         

        CLASS   BANK25         

        CLASS   BANK24         

        CLASS   BANK23         

        CLASS   BANK22         

        CLASS   BANK21         

        CLASS   BANK20         

        CLASS   BANK19         

        CLASS   BANK18         

        CLASS   BANK17         

        CLASS   BANK16         

        CLASS   BANK15         

        CLASS   BANK14         

        CLASS   BANK13         



SEGMENTS        Name                           Load    Length   Top    Selector   Space  Class     Delta

                reset_vec                      000000  000002  000002         0       0  CODE        2
                intentry                       000004  0007FB  0007FF         8       0  CODE        2
                cstackBANK0                    000020  00004C  00006C        20       1  BANK0       1
                cstackCOMMON                   000070  00000B  00007B        70       1  COMMON      1
                cstackBANK1                    0000A0  000048  0000E8        A0       1  BANK1       1
                dataBANK2                      000120  000040  000160       120       1  BANK2       1
                bssBANK3                       0001A0  000040  0001E0       1A0       1  BANK3       1
                inittext                       000DE9  000006  000DEF      1BD2       0  CODE        2
                clrtext                        000DEF  000006  000DF5      1BDE       0  CODE        2
                text1                          000DF5  000008  000DFD      1BEA       0  CODE        2
                text26                         000DFD  00000E  000E0B      1BFA       0  CODE        2
                text10                         000E0B  000019  000E24      1C16       0  CODE        2
                text7                          000E24  00001A  000E3E      1C48       0  CODE        2
                text11                         000E3E  00001B  000E59      1C7C       0  CODE        2
                text12                         000E59  00001C  000E75      1CB2       0  CODE        2
                text27                         000E75  00001E  000E93      1CEA       0  CODE        2
                text29                         000E93  00001F  000EB2      1D26       0  CODE        2
                text8                          000EB2  000025  000ED7      1D64       0  CODE        2
                text9                          000ED7  000027  000EFE      1DAE       0  CODE        2
                text6                          000EFE  00002F  000F2D      1DFC       0  CODE        2
                text5                          000F2D  00002F  000F5C      1E5A       0  CODE        2
                text3                          000F5C  000032  000F8E      1EB8       0  CODE        2
                text17                         000F8E  000036  000FC4      1F1C       0  CODE        2
                text19                         000FC4  00003C  001000      1F88       0  CODE        2
                stringtext                     001000  000017  001017        20       0  STRCODE     2
                config                         008007  000002  008009     1000E       0  CONFIG      2


UNUSED ADDRESS RANGES

        Name                Unused          Largest block    Delta
        BANK0            0006C-0006F               4           1
        BANK1            000E8-000EF               8           1
        BANK10           00520-0056F              50           1
        BANK11           005A0-005EF              50           1
        BANK12           00620-0064F              30           1
        BANK2            00160-0016F              10           1
        BANK3            001E0-001EF              10           1
        BANK4            00220-0026F              50           1
        BANK5            002A0-002EF              50           1
        BANK6            00320-0036F              50           1
        BANK7            003A0-003EF              50           1
        BANK8            00420-0046F              50           1
        BANK9            004A0-004EF              50           1
        BIGRAM           02000-023EF             3F0           1
        CODE             00002-00003               2           2
                         007FF-00DE8               1
                         01017-03FFF             800
        COMMON           0007B-0007D               3           1
        CONST            00002-00003               2           2
                         007FF-00DE8             100
                         01017-03FFF             100
        EEDATA           0F000-0F0FF             100           2
        ENTRY            00002-00003               2           2
                         007FF-00DE8             100
                         01017-03FFF             100
        IDLOC            08000-08003               4           2
        RAM              0006C-0006F               4           1
                         000E8-000EF               8
                         00160-0016F              10
                         001E0-001EF              10
                         00220-0026F              50
                         002A0-002EF              50
                         00320-0036F              50
                         003A0-003EF              50
                         00420-0046F              50
                         004A0-004EF              50
                         00520-0056F              50
                         005A0-005EF              50
                         00620-0064F              30
        SFR0             00000-0001F              20           1
        SFR1             00080-0009F              20           1
        SFR10            00500-0051F              20           1
        SFR11            00580-0059F              20           1
        SFR12            00600-0061F              20           1
        SFR13            00680-006EF              70           1
        SFR14            00700-0076F              70           1
        SFR15            00780-007EF              70           1
        SFR16            00800-0086F              70           1
        SFR17            00880-008EF              70           1
        SFR18            00900-0096F              70           1
        SFR19            00980-009EF              70           1
        SFR2             00100-0011F              20           1
        SFR20            00A00-00A6F              70           1
        SFR21            00A80-00AEF              70           1
        SFR22            00B00-00B6F              70           1
        SFR23            00B80-00BEF              70           1
        SFR24            00C00-00C6F              70           1
        SFR25            00C80-00CEF              70           1
        SFR26            00D00-00D6F              70           1
        SFR27            00D80-00DEF              70           1
        SFR28            00E00-00E6F              70           1
        SFR29            00E80-00EEF              70           1
        SFR3             00180-0019F              20           1
        SFR30            00F00-00F6F              70           1
        SFR31            00F80-00FEF              70           1
        SFR4             00200-0021F              20           1
        SFR5             00280-0029F              20           1
        SFR6             00300-0031F              20           1
        SFR7             00380-0039F              20           1
        SFR8             00400-0041F              20           1
        SFR9             00480-0049F              20           1
        STACK            02130-023EF             2C0           1
        STRCODE          00002-00003               2           2
                         007FF-00DE8             5EA
                         01017-03FFF            2FE9
        STRING           00002-00003               2           2
                         007FF-00DE8             100
                         01017-03FFF             100

                                  Symbol Table

?___altoft               cstackBANK0  00047
?___awtoft               cstackBANK0  00023
?___ftadd                cstackBANK0  00023
?___ftdiv                cstackBANK0  00029
?___ftpack               cstackCOMMON 00073
?___fttol                cstackBANK0  00039
?___wmul                 cstackCOMMON 00073
?_atoi                   cstackBANK0  00022
?_ceil                   cstackBANK0  0004F
?_find                   cstackCOMMON 00073
?_step                   cstackBANK0  00058
?_strchr                 cstackCOMMON 00073
?_strcmp                 cstackCOMMON 00073
?_strcspn                cstackBANK0  00023
?_strlen                 cstackCOMMON 00073
?_strspn                 cstackBANK0  00023
_ANSELA                  (abs)        0018C
_ANSELB                  (abs)        0018D
_GIE                     (abs)        0005F
_OSCCON                  (abs)        00099
_PEIE                    (abs)        0005E
_PS0                     (abs)        004A8
_PS1                     (abs)        004A9
_PS2                     (abs)        004AA
_PSA                     (abs)        004AB
_RA0                     (abs)        00060
_RA1                     (abs)        00061
_RA2                     (abs)        00062
_RA3                     (abs)        00063
_RA4                     (abs)        00064
_RA5                     (abs)        00065
_RB0                     (abs)        00068
_RB1                     (abs)        00069
_RB2                     (abs)        0006A
_RB3                     (abs)        0006B
_RC1                     (abs)        00071
_RC2                     (abs)        00072
_RCIE                    (abs)        0048D
_RCIF                    (abs)        0008D
_RCREG                   (abs)        00199
_RCSTA                   (abs)        0019D
_SPBRG                   (abs)        0019B
_T0CS                    (abs)        004AD
_T0IE                    (abs)        0005D
_T0IF                    (abs)        0005A
_TMR0                    (abs)        00015
_TMR0IF                  (abs)        0005A
_TRISA                   (abs)        0008C
_TRISB                   (abs)        0008D
_TRISC                   (abs)        0008E
_TXIE                    (abs)        0048C
_TXIF                    (abs)        0008C
_TXREG                   (abs)        0019A
_TXSTA                   (abs)        0019E
__CFG_BOREN$OFF          (abs)        00000
__CFG_BORV$HI            (abs)        00000
__CFG_CLKOUTEN$OFF       (abs)        00000
__CFG_CP$OFF             (abs)        00000
__CFG_CPD$OFF            (abs)        00000
__CFG_FCMEN$OFF          (abs)        00000
__CFG_FOSC$INTOSC        (abs)        00000
__CFG_IESO$OFF           (abs)        00000
__CFG_LVP$OFF            (abs)        00000
__CFG_MCLRE$ON           (abs)        00000
__CFG_PLLEN$OFF          (abs)        00000
__CFG_PWRTE$OFF          (abs)        00000
__CFG_STVREN$ON          (abs)        00000
__CFG_VCAPEN$OFF         (abs)        00000
__CFG_WDTE$OFF           (abs)        00000
__CFG_WRT$OFF            (abs)        00000
__Habs1                  abs1         00000
__Hbank0                 bank0        00000
__Hbank1                 bank1        00000
__Hbank10                bank10       00000
__Hbank11                bank11       00000
__Hbank12                bank12       00000
__Hbank13                bank13       00000
__Hbank14                bank14       00000
__Hbank15                bank15       00000
__Hbank16                bank16       00000
__Hbank17                bank17       00000
__Hbank18                bank18       00000
__Hbank19                bank19       00000
__Hbank2                 bank2        00000
__Hbank20                bank20       00000
__Hbank21                bank21       00000
__Hbank22                bank22       00000
__Hbank23                bank23       00000
__Hbank24                bank24       00000
__Hbank25                bank25       00000
__Hbank26                bank26       00000
__Hbank27                bank27       00000
__Hbank28                bank28       00000
__Hbank29                bank29       00000
__Hbank3                 bank3        00000
__Hbank30                bank30       00000
__Hbank31                bank31       00000
__Hbank4                 bank4        00000
__Hbank5                 bank5        00000
__Hbank6                 bank6        00000
__Hbank7                 bank7        00000
__Hbank8                 bank8        00000
__Hbank9                 bank9        00000
__Hbigram                bigram       00000
__HbssBANK0              bssBANK0     00000
__HbssBANK3              bssBANK3     00000
__HbssCOMMON             bssCOMMON    00000
__Hcinit                 cinit        00034
__Hclrtext               clrtext      00000
__Hcode                  code         00000
__Hcommon                common       00000
__Hconfig                config       08009
__HcstackBANK0           cstackBANK0  00000
__HcstackBANK1           cstackBANK1  00000
__HcstackCOMMON          cstackCOMMON 00000
__HdataBANK2             dataBANK2    00000
__Heeprom_data           eeprom_data  00000
__Hend_init              end_init     00015
__Hfunctab               functab      00000
__HidataBANK2            idataBANK2   00000
__Hidloc                 idloc        00000
__Hinit                  init         00013
__Hinittext              inittext     00000
__Hintentry              intentry     00013
__Hmaintext              maintext     00000
__Hpowerup               powerup      00000
__Hram                   ram          00000
__Hreset_vec             reset_vec    00002
__Hsfr0                  sfr0         00000
__Hsfr1                  sfr1         00000
__Hsfr10                 sfr10        00000
__Hsfr11                 sfr11        00000
__Hsfr12                 sfr12        00000
__Hsfr13                 sfr13        00000
__Hsfr14                 sfr14        00000
__Hsfr15                 sfr15        00000
__Hsfr16                 sfr16        00000
__Hsfr17                 sfr17        00000
__Hsfr18                 sfr18        00000
__Hsfr19                 sfr19        00000
__Hsfr2                  sfr2         00000
__Hsfr20                 sfr20        00000
__Hsfr21                 sfr21        00000
__Hsfr22                 sfr22        00000
__Hsfr23                 sfr23        00000
__Hsfr24                 sfr24        00000
__Hsfr25                 sfr25        00000
__Hsfr26                 sfr26        00000
__Hsfr27                 sfr27        00000
__Hsfr28                 sfr28        00000
__Hsfr29                 sfr29        00000
__Hsfr3                  sfr3         00000
__Hsfr30                 sfr30        00000
__Hsfr31                 sfr31        00000
__Hsfr4                  sfr4         00000
__Hsfr5                  sfr5         00000
__Hsfr6                  sfr6         00000
__Hsfr7                  sfr7         00000
__Hsfr8                  sfr8         00000
__Hsfr9                  sfr9         00000
__Hspace_0               (abs)        08009
__Hspace_1               (abs)        001E0
__Hspace_2               (abs)        00000
__Hspace_3               (abs)        00000
__Hstack                 stack        00000
__Hstrings               strings      00000
__Hstringtext            stringtext   00000
__Htext                  text         00000
__Labs1                  abs1         00000
__Lbank0                 bank0        00000
__Lbank1                 bank1        00000
__Lbank10                bank10       00000
__Lbank11                bank11       00000
__Lbank12                bank12       00000
__Lbank13                bank13       00000
__Lbank14                bank14       00000
__Lbank15                bank15       00000
__Lbank16                bank16       00000
__Lbank17                bank17       00000
__Lbank18                bank18       00000
__Lbank19                bank19       00000
__Lbank2                 bank2        00000
__Lbank20                bank20       00000
__Lbank21                bank21       00000
__Lbank22                bank22       00000
__Lbank23                bank23       00000
__Lbank24                bank24       00000
__Lbank25                bank25       00000
__Lbank26                bank26       00000
__Lbank27                bank27       00000
__Lbank28                bank28       00000
__Lbank29                bank29       00000
__Lbank3                 bank3        00000
__Lbank30                bank30       00000
__Lbank31                bank31       00000
__Lbank4                 bank4        00000
__Lbank5                 bank5        00000
__Lbank6                 bank6        00000
__Lbank7                 bank7        00000
__Lbank8                 bank8        00000
__Lbank9                 bank9        00000
__Lbigram                bigram       00000
__LbssBANK0              bssBANK0     00000
__LbssBANK3              bssBANK3     00000
__LbssCOMMON             bssCOMMON    00000
__Lcinit                 cinit        00015
__Lclrtext               clrtext      00000
__Lcode                  code         00000
__Lcommon                common       00000
__Lconfig                config       08007
__LcstackBANK0           cstackBANK0  00000
__LcstackBANK1           cstackBANK1  00000
__LcstackCOMMON          cstackCOMMON 00000
__LdataBANK2             dataBANK2    00000
__Leeprom_data           eeprom_data  00000
__Lend_init              end_init     00013
__Lfunctab               functab      00000
__LidataBANK2            idataBANK2   00000
__Lidloc                 idloc        00000
__Linit                  init         00013
__Linittext              inittext     00000
__Lintentry              intentry     00004
__Lmaintext              maintext     00000
__Lpowerup               powerup      00000
__Lram                   ram          00000
__Lreset_vec             reset_vec    00000
__Lsfr0                  sfr0         00000
__Lsfr1                  sfr1         00000
__Lsfr10                 sfr10        00000
__Lsfr11                 sfr11        00000
__Lsfr12                 sfr12        00000
__Lsfr13                 sfr13        00000
__Lsfr14                 sfr14        00000
__Lsfr15                 sfr15        00000
__Lsfr16                 sfr16        00000
__Lsfr17                 sfr17        00000
__Lsfr18                 sfr18        00000
__Lsfr19                 sfr19        00000
__Lsfr2                  sfr2         00000
__Lsfr20                 sfr20        00000
__Lsfr21                 sfr21        00000
__Lsfr22                 sfr22        00000
__Lsfr23                 sfr23        00000
__Lsfr24                 sfr24        00000
__Lsfr25                 sfr25        00000
__Lsfr26                 sfr26        00000
__Lsfr27                 sfr27        00000
__Lsfr28                 sfr28        00000
__Lsfr29                 sfr29        00000
__Lsfr3                  sfr3         00000
__Lsfr30                 sfr30        00000
__Lsfr31                 sfr31        00000
__Lsfr4                  sfr4         00000
__Lsfr5                  sfr5         00000
__Lsfr6                  sfr6         00000
__Lsfr7                  sfr7         00000
__Lsfr8                  sfr8         00000
__Lsfr9                  sfr9         00000
__Lspace_0               (abs)        00000
__Lspace_1               (abs)        00000
__Lspace_2               (abs)        00000
__Lspace_3               (abs)        00000
__Lstack                 stack        00000
__Lstrings               strings      00000
__Lstringtext            stringtext   00000
__Ltext                  text         00000
__S0                     (abs)        08009
__S1                     (abs)        001E0
__S2                     (abs)        00000
__S3                     (abs)        00000
___altoft                text21       007A0
___altoft@c              cstackBANK0  00047
___altoft@exp            cstackBANK0  0004D
___altoft@sign           cstackBANK0  0004E
___awtoft                text23       007DD
___awtoft@c              cstackBANK0  00023
___awtoft@sign           cstackBANK0  00028
___ftadd                 text20       001A8
___ftadd@exp1            cstackBANK0  0002F
___ftadd@exp2            cstackBANK0  0002E
___ftadd@f1              cstackBANK0  00023
___ftadd@f2              cstackBANK0  00026
___ftadd@sign            cstackBANK0  0002D
___ftdiv                 text22       00400
___ftdiv@cntr            cstackBANK0  00033
___ftdiv@exp             cstackBANK0  00037
___ftdiv@f1              cstackBANK0  0002C
___ftdiv@f2              cstackBANK0  00029
___ftdiv@f3              cstackBANK0  00034
___ftdiv@sign            cstackBANK0  00038
___ftge                  text19       00FC4
___ftge@ff1              cstackBANK0  00020
___ftge@ff2              cstackBANK0  00023
___ftpack                text24       00620
___ftpack@arg            cstackCOMMON 00073
___ftpack@exp            cstackCOMMON 00076
___ftpack@sign           cstackCOMMON 00077
___fttol                 text18       004A9
___fttol@exp1            cstackBANK0  00046
___fttol@f1              cstackBANK0  00039
___fttol@lval            cstackBANK0  00042
___fttol@sign1           cstackBANK0  00041
___int_sp                stack        00000
___latbits               (abs)        00003
___sp                    stack        00000
___wmul                  text27       00E75
___wmul@multiplicand     cstackCOMMON 00075
___wmul@multiplier       cstackCOMMON 00073
___wmul@product          cstackBANK0  00020
__end_of___altoft        text21       007DD
__end_of___awtoft        text23       007FF
__end_of___ftadd         text20       0029E
__end_of___ftdiv         text22       004A9
__end_of___ftge          text19       01000
__end_of___ftpack        text24       00687
__end_of___fttol         text18       00530
__end_of___wmul          text27       00E93
__end_of__initialization cinit        00031
__end_of_atoi            text25       00620
__end_of_ceil            text16       005B5
__end_of_find            text3        00F8E
__end_of_frexp           text17       00FC4
__end_of_isdigit         text26       00E0B
__end_of_isr             intentry     00013
__end_of_left            text14       00400
__end_of_main            maintext     001A8
__end_of_memset          text12       00E75
__end_of_receive_isr     text29       00EB2
__end_of_right           text13       0034F
__end_of_setup           text10       00E24
__end_of_step            text15       00760
__end_of_strchr          text7        00E3E
__end_of_strcmp          text9        00EFE
__end_of_strcspn         text6        00F2D
__end_of_strlen          text8        00ED7
__end_of_strspn          text5        00F5C
__end_of_strtok          text4        00719
__end_of_uart_gets       text2        006D0
__end_of_uart_send       text1        00DFD
__end_of_uart_setup      text11       00E59
__end_ofmain@tokens      stringtext   01003
__initialization         cinit        00015
__pbssBANK0              bssBANK0     00066
__pbssBANK3              bssBANK3     001A0
__pbssCOMMON             bssCOMMON    00078
__pcstackBANK0           cstackBANK0  00020
__pcstackBANK1           cstackBANK1  000A0
__pcstackCOMMON          cstackCOMMON 00070
__pdataBANK2             dataBANK2    00120
__pidataBANK2            idataBANK2   00760
__pintentry              intentry     00004
__pmaintext              maintext     00034
__pstringtext            stringtext   01000
__ptext1                 text1        00DF5
__ptext10                text10       00E0B
__ptext11                text11       00E3E
__ptext12                text12       00E59
__ptext13                text13       0029E
__ptext14                text14       0034F
__ptext15                text15       00719
__ptext16                text16       00530
__ptext17                text17       00F8E
__ptext18                text18       004A9
__ptext19                text19       00FC4
__ptext2                 text2        00687
__ptext20                text20       001A8
__ptext21                text21       007A0
__ptext22                text22       00400
__ptext23                text23       007DD
__ptext24                text24       00620
__ptext25                text25       005B5
__ptext26                text26       00DFD
__ptext27                text27       00E75
__ptext29                text29       00E93
__ptext3                 text3        00F5C
__ptext4                 text4        006D0
__ptext5                 text5        00F2D
__ptext6                 text6        00EFE
__ptext7                 text7        00E24
__ptext8                 text8        00EB2
__ptext9                 text9        00ED7
__size_of___altoft       (abs)        00000
__size_of___awtoft       (abs)        00000
__size_of___ftadd        (abs)        00000
__size_of___ftdiv        (abs)        00000
__size_of___ftge         (abs)        00000
__size_of___ftpack       (abs)        00000
__size_of___fttol        (abs)        00000
__size_of___wmul         (abs)        00000
__size_of_atoi           (abs)        00000
__size_of_ceil           (abs)        00000
__size_of_find           (abs)        00000
__size_of_frexp          (abs)        00000
__size_of_isdigit        (abs)        00000
__size_of_isr            (abs)        00000
__size_of_left           (abs)        00000
__size_of_main           (abs)        00000
__size_of_memset         (abs)        00000
__size_of_receive_isr    (abs)        00000
__size_of_right          (abs)        00000
__size_of_setup          (abs)        00000
__size_of_step           (abs)        00000
__size_of_strchr         (abs)        00000
__size_of_strcmp         (abs)        00000
__size_of_strcspn        (abs)        00000
__size_of_strlen         (abs)        00000
__size_of_strspn         (abs)        00000
__size_of_strtok         (abs)        00000
__size_of_uart_gets      (abs)        00000
__size_of_uart_send      (abs)        00000
__size_of_uart_setup     (abs)        00000
_atoi                    text25       005B5
_ceil                    text16       00530
_find                    text3        00F5C
_frexp                   text17       00F8E
_isdigit                 text26       00DFD
_isdigit$445             cstackCOMMON 00073
_isr                     intentry     00004
_left                    text14       0034F
_main                    maintext     00034
_memset                  text12       00E59
_receive_isr             text29       00E93
_right                   text13       0029E
_rx_in                   bssCOMMON    00078
_rx_out                  bssCOMMON    00079
_rx_used                 bssBANK0     00068
_rxbuf                   bssBANK3     001C0
_setup                   text10       00E0B
_step                    text15       00719
_step$732                cstackBANK0  0005A
_step_pattern_left       dataBANK2    00120
_step_pattern_right      dataBANK2    00140
_strchr                  text7        00E24
_strcmp                  text9        00ED7
_strcspn                 text6        00EFE
_strlen                  text8        00EB2
_strspn                  text5        00F2D
_strtok                  text4        006D0
_tx_in                   bssBANK0     00069
_tx_out                  bssCOMMON    0007A
_tx_used                 bssBANK0     0006A
_txbuf                   bssBANK3     001A0
_uart_gets               text2        00687
_uart_send               text1        00DF5
_uart_setup              text11       00E3E
atoi@a                   cstackBANK0  00027
atoi@s                   cstackBANK0  00029
atoi@sign                cstackBANK0  00026
btemp                    (abs)        0007E
ceil@expon               cstackBANK0  00056
ceil@i                   cstackBANK0  00053
ceil@x                   cstackBANK0  0004F
clear_ram0               clrtext      00DEF
end_of_initialization    cinit        00031
find@idx                 cstackBANK0  00024
find@it                  cstackBANK0  00023
find@size                cstackBANK0  00021
find@tail                cstackBANK0  00020
frexp@eptr               cstackCOMMON 00076
frexp@value              cstackCOMMON 00073
init_ram                 inittext     00DE9
intlevel0                functab      00000
intlevel1                functab      00000
intlevel2                functab      00000
intlevel3                functab      00000
intlevel4                functab      00000
intlevel5                functab      00000
isdigit@c                cstackCOMMON 00074
left@i                   cstackBANK1  000A4
left@k                   cstackBANK1  000A2
left@mal                 cstackBANK0  0005F
left@pluse               cstackBANK1  000A0
left@speed               cstackBANK0  00061
ltemp                    (abs)        0007E
ltemp0                   (abs)        0007E
ltemp1                   (abs)        00082
ltemp2                   (abs)        00086
ltemp3                   (abs)        00080
main@addr                cstackBANK1  000E0
main@address             cstackBANK1  000DA
main@argc                cstackBANK1  000E5
main@argv                cstackBANK1  000D6
main@i                   cstackBANK1  000E2
main@it                  cstackBANK1  000DF
main@len                 cstackBANK1  000DC
main@line                cstackBANK1  000B6
main@mode_sel            cstackBANK1  000DE
main@title               cstackBANK1  000E4
main@tokens              stringtext   01000
main@val                 cstackBANK1  000E7
memset@c                 cstackCOMMON 00073
memset@n                 cstackCOMMON 00075
memset@p                 cstackBANK0  00021
memset@p1                cstackBANK0  00020
receive_isr@temp         cstackCOMMON 00071
reset_vec                reset_vec    00000
right@i                  cstackBANK1  000A4
right@k                  cstackBANK1  000A2
right@mal                cstackBANK0  0005F
right@pluse              cstackBANK1  000A0
right@speed              cstackBANK0  00061
stackhi                  (abs)        023EF
stacklo                  (abs)        02130
start                    init         00013
start_initialization     cinit        00015
step@a                   cstackBANK0  0005D
step@deg                 cstackBANK0  00058
strchr@chr               cstackCOMMON 00075
strchr@ptr               cstackCOMMON 00073
strcmp@r                 cstackCOMMON 00076
strcmp@s1                cstackCOMMON 00077
strcmp@s2                cstackCOMMON 00073
strcspn@i                cstackBANK0  00027
strcspn@s1               cstackBANK0  00029
strcspn@s2               cstackBANK0  00023
strlen@cp                cstackCOMMON 00076
strlen@s                 cstackCOMMON 00075
strspn@i                 cstackBANK0  00027
strspn@s1                cstackBANK0  00029
strspn@s2                cstackBANK0  00023
strtok@s1                cstackCOMMON 00077
strtok@s2                cstackBANK0  0002A
strtok@sp                bssBANK0     0006B
ttemp                    (abs)        0007E
ttemp0                   (abs)        0007E
ttemp1                   (abs)        00081
ttemp2                   (abs)        00084
ttemp3                   (abs)        00087
ttemp4                   (abs)        0007F
uart_gets@idx            cstackBANK0  0002C
uart_gets@it             cstackBANK0  00029
uart_gets@mem            cstackBANK0  00028
uart_gets@pos            cstackBANK0  0002A
uart_gets@size           cstackBANK0  00025
uart_gets@tail           cstackBANK0  00027
uart_send@data           cstackCOMMON 00073
wtemp                    (abs)        0007E
wtemp0                   (abs)        0007E
wtemp1                   (abs)        00080
wtemp2                   (abs)        00082
wtemp3                   (abs)        00084
wtemp4                   (abs)        00086
wtemp5                   (abs)        00088
wtemp6                   (abs)        0007F


FUNCTION INFORMATION:

 *************** function _main *****************
 Defined at:
		line 56 in file "newmain.c"
 Parameters:    Size  Location     Type
		None
 Auto vars:     Size  Location     Type
  i               2   66[BANK1 ] int 
  addr            2   64[BANK1 ] int 
  len             2   60[BANK1 ] unsigned int 
  line           32   22[BANK1 ] unsigned char [32]
  argv            4   54[BANK1 ] PTR unsigned char [4]
		 -> main@line(32), NULL(0), 
  argc            2   69[BANK1 ] int 
  address         2   58[BANK1 ] int 
  val             1   71[BANK1 ] PTR unsigned char 
		 -> main@line(32), NULL(0), 
  title           1   68[BANK1 ] PTR unsigned char 
		 -> main@line(32), NULL(0), 
  it              1   63[BANK1 ] PTR unsigned char 
		 -> main@line(32), NULL(0), 
  mode_sel        1   62[BANK1 ] unsigned char 
 Return value:  Size  Location     Type
		None               void
 Registers used:
		wreg, fsr0l, fsr0h, fsr1l, fsr1h, status,2, status,0, pclath, cstack
 Tracked objects:
		On entry : 
		On exit  : 
		Unchanged: 
 Data sizes:     COMMON   BANK0   BANK1   BANK2   BANK3   BANK4   BANK5   BANK6   BANK7   BANK8   BANK9  BANK10  BANK11  BANK12
      Params:         0       0       0       0       0       0       0       0       0       0       0       0       0       0
      Locals:         0       0      50       0       0       0       0       0       0       0       0       0       0       0
      Temps:          0       0      16       0       0       0       0       0       0       0       0       0       0       0
      Totals:         0       0      66       0       0       0       0       0       0       0       0       0       0       0
Total ram usage:       66 bytes
 Hardware stack levels required when called:    7
 This function calls:
		_atoi
		_left
		_right
		_setup
		_strcmp
		_strlen
		_strtok
		_uart_gets
		_uart_send
 This function is called by:
		Startup code after reset
 This function uses a non-reentrant model


 *************** function _uart_send *****************
 Defined at:
		line 154 in file "uart.c"
 Parameters:    Size  Location     Type
  data            1    wreg     unsigned char 
 Auto vars:     Size  Location     Type
  data            1    3[COMMON] unsigned char 
 Return value:  Size  Location     Type
		None               void
 Registers used:
		wreg
 Tracked objects:
		On entry : 
		On exit  : 
		Unchanged: 
 Data sizes:     COMMON   BANK0   BANK1   BANK2   BANK3   BANK4   BANK5   BANK6   BANK7   BANK8   BANK9  BANK10  BANK11  BANK12
      Params:         0       0       0       0       0       0       0       0       0       0       0       0       0       0
      Locals:         1       0       0       0       0       0       0       0       0       0       0       0       0       0
      Temps:          0       0       0       0       0       0       0       0       0       0       0       0       0       0
      Totals:         1       0       0       0       0       0       0       0       0       0       0       0       0       0
Total ram usage:        1 bytes
 Hardware stack levels used:    1
 Hardware stack levels required when called:    2
 This function calls:
		Nothing
 This function is called by:
		_main
 This function uses a non-reentrant model


 *************** function _uart_gets *****************
 Defined at:
		line 90 in file "uart.c"
 Parameters:    Size  Location     Type
  mem             1    wreg     PTR unsigned char 
		 -> main@line(32), 
  size            2    5[BANK0 ] unsigned int 
 Auto vars:     Size  Location     Type
  mem             1    8[BANK0 ] PTR unsigned char 
		 -> main@line(32), 
  idx             1   12[BANK0 ] unsigned char 
  tail            1    7[BANK0 ] unsigned char 
  pos             2   10[BANK0 ] unsigned int 
  it              1    9[BANK0 ] PTR unsigned char 
		 -> main@line(32), 
 Return value:  Size  Location     Type
                  1    wreg      PTR unsigned char 
 Registers used:
		wreg, fsr1l, fsr1h, status,2, status,0, pclath, cstack
 Tracked objects:
		On entry : 
		On exit  : 
		Unchanged: 
 Data sizes:     COMMON   BANK0   BANK1   BANK2   BANK3   BANK4   BANK5   BANK6   BANK7   BANK8   BANK9  BANK10  BANK11  BANK12
      Params:         0       2       0       0       0       0       0       0       0       0       0       0       0       0
      Locals:         0       6       0       0       0       0       0       0       0       0       0       0       0       0
      Temps:          1       0       0       0       0       0       0       0       0       0       0       0       0       0
      Totals:         1       8       0       0       0       0       0       0       0       0       0       0       0       0
Total ram usage:        9 bytes
 Hardware stack levels used:    1
 Hardware stack levels required when called:    3
 This function calls:
		_find
 This function is called by:
		_main
 This function uses a non-reentrant model


 *************** function _find *****************
 Defined at:
		line 77 in file "uart.c"
 Parameters:    Size  Location     Type
		None
 Auto vars:     Size  Location     Type
  size            2    1[BANK0 ] unsigned int 
  idx             1    4[BANK0 ] unsigned char 
  it              1    3[BANK0 ] unsigned char 
  tail            1    0[BANK0 ] unsigned char 
 Return value:  Size  Location     Type
                  2    3[COMMON] unsigned int 
 Registers used:
		wreg, fsr1l, fsr1h, status,2, status,0
 Tracked objects:
		On entry : 
		On exit  : 
		Unchanged: 
 Data sizes:     COMMON   BANK0   BANK1   BANK2   BANK3   BANK4   BANK5   BANK6   BANK7   BANK8   BANK9  BANK10  BANK11  BANK12
      Params:         2       0       0       0       0       0       0       0       0       0       0       0       0       0
      Locals:         0       5       0       0       0       0       0       0       0       0       0       0       0       0
      Temps:          1       0       0       0       0       0       0       0       0       0       0       0       0       0
      Totals:         3       5       0       0       0       0       0       0       0       0       0       0       0       0
Total ram usage:        8 bytes
 Hardware stack levels used:    1
 Hardware stack levels required when called:    2
 This function calls:
		Nothing
 This function is called by:
		_uart_gets
 This function uses a non-reentrant model


 *************** function _strtok *****************
 Defined at:
		line 8 in file "C:\Program Files (x86)\Microchip\xc8\v1.34\sources\common\strtok.c"
 Parameters:    Size  Location     Type
  s1              1    wreg     PTR unsigned char 
		 -> main@line(32), NULL(0), 
  s2              2   10[BANK0 ] PTR const unsigned char 
		 -> main@tokens(3), 
 Auto vars:     Size  Location     Type
  s1              1    7[COMMON] PTR unsigned char 
		 -> main@line(32), NULL(0), 
 Return value:  Size  Location     Type
                  1    wreg      PTR unsigned char 
 Registers used:
		wreg, fsr0l, fsr0h, fsr1l, fsr1h, status,2, status,0, pclath, cstack
 Tracked objects:
		On entry : 
		On exit  : 
		Unchanged: 
 Data sizes:     COMMON   BANK0   BANK1   BANK2   BANK3   BANK4   BANK5   BANK6   BANK7   BANK8   BANK9  BANK10  BANK11  BANK12
      Params:         0       2       0       0       0       0       0       0       0       0       0       0       0       0
      Locals:         1       0       0       0       0       0       0       0       0       0       0       0       0       0
      Temps:          0       3       0       0       0       0       0       0       0       0       0       0       0       0
      Totals:         1       5       0       0       0       0       0       0       0       0       0       0       0       0
Total ram usage:        6 bytes
 Hardware stack levels used:    1
 Hardware stack levels required when called:    4
 This function calls:
		_strcspn
		_strspn
 This function is called by:
		_main
 This function uses a non-reentrant model


 *************** function _strspn *****************
 Defined at:
		line 4 in file "C:\Program Files (x86)\Microchip\xc8\v1.34\sources\common\strspn.c"
 Parameters:    Size  Location     Type
  s1              1    wreg     PTR const unsigned char 
		 -> main@line(32), NULL(0), 
  s2              2    3[BANK0 ] PTR const unsigned char 
		 -> main@tokens(3), 
 Auto vars:     Size  Location     Type
  s1              1    9[BANK0 ] PTR const unsigned char 
		 -> main@line(32), NULL(0), 
  i               2    7[BANK0 ] unsigned int 
 Return value:  Size  Location     Type
                  2    3[BANK0 ] unsigned int 
 Registers used:
		wreg, fsr0l, fsr0h, fsr1l, fsr1h, status,2, status,0, pclath, cstack
 Tracked objects:
		On entry : 
		On exit  : 
		Unchanged: 
 Data sizes:     COMMON   BANK0   BANK1   BANK2   BANK3   BANK4   BANK5   BANK6   BANK7   BANK8   BANK9  BANK10  BANK11  BANK12
      Params:         0       2       0       0       0       0       0       0       0       0       0       0       0       0
      Locals:         0       3       0       0       0       0       0       0       0       0       0       0       0       0
      Temps:          0       2       0       0       0       0       0       0       0       0       0       0       0       0
      Totals:         0       7       0       0       0       0       0       0       0       0       0       0       0       0
Total ram usage:        7 bytes
 Hardware stack levels used:    1
 Hardware stack levels required when called:    3
 This function calls:
		_strchr
 This function is called by:
		_strtok
 This function uses a non-reentrant model


 *************** function _strcspn *****************
 Defined at:
		line 4 in file "C:\Program Files (x86)\Microchip\xc8\v1.34\sources\common\strcspn.c"
 Parameters:    Size  Location     Type
  s1              1    wreg     PTR const unsigned char 
		 -> main@line(32), NULL(0), 
  s2              2    3[BANK0 ] PTR const unsigned char 
		 -> main@tokens(3), 
 Auto vars:     Size  Location     Type
  s1              1    9[BANK0 ] PTR const unsigned char 
		 -> main@line(32), NULL(0), 
  i               2    7[BANK0 ] unsigned int 
 Return value:  Size  Location     Type
                  2    3[BANK0 ] unsigned int 
 Registers used:
		wreg, fsr0l, fsr0h, fsr1l, fsr1h, status,2, status,0, pclath, cstack
 Tracked objects:
		On entry : 
		On exit  : 
		Unchanged: 
 Data sizes:     COMMON   BANK0   BANK1   BANK2   BANK3   BANK4   BANK5   BANK6   BANK7   BANK8   BANK9  BANK10  BANK11  BANK12
      Params:         0       2       0       0       0       0       0       0       0       0       0       0       0       0
      Locals:         0       3       0       0       0       0       0       0       0       0       0       0       0       0
      Temps:          0       2       0       0       0       0       0       0       0       0       0       0       0       0
      Totals:         0       7       0       0       0       0       0       0       0       0       0       0       0       0
Total ram usage:        7 bytes
 Hardware stack levels used:    1
 Hardware stack levels required when called:    3
 This function calls:
		_strchr
 This function is called by:
		_strtok
 This function uses a non-reentrant model


 *************** function _strchr *****************
 Defined at:
		line 4 in file "C:\Program Files (x86)\Microchip\xc8\v1.34\sources\common\strchr.c"
 Parameters:    Size  Location     Type
  ptr             2    3[COMMON] PTR const unsigned char 
		 -> main@tokens(3), 
  chr             2    5[COMMON] int 
 Auto vars:     Size  Location     Type
		None
 Return value:  Size  Location     Type
                  2    3[COMMON] PTR unsigned char 
 Registers used:
		wreg, fsr0l, fsr0h, status,2, status,0, pclath
 Tracked objects:
		On entry : 
		On exit  : 
		Unchanged: 
 Data sizes:     COMMON   BANK0   BANK1   BANK2   BANK3   BANK4   BANK5   BANK6   BANK7   BANK8   BANK9  BANK10  BANK11  BANK12
      Params:         4       0       0       0       0       0       0       0       0       0       0       0       0       0
      Locals:         0       0       0       0       0       0       0       0       0       0       0       0       0       0
      Temps:          0       3       0       0       0       0       0       0       0       0       0       0       0       0
      Totals:         4       3       0       0       0       0       0       0       0       0       0       0       0       0
Total ram usage:        7 bytes
 Hardware stack levels used:    1
 Hardware stack levels required when called:    2
 This function calls:
		Nothing
 This function is called by:
		_strcspn
		_strspn
 This function uses a non-reentrant model


 *************** function _strlen *****************
 Defined at:
		line 4 in file "C:\Program Files (x86)\Microchip\xc8\v1.34\sources\common\strlen.c"
 Parameters:    Size  Location     Type
  s               1    wreg     PTR const unsigned char 
		 -> main@line(32), NULL(0), 
 Auto vars:     Size  Location     Type
  s               1    5[COMMON] PTR const unsigned char 
		 -> main@line(32), NULL(0), 
  cp              1    6[COMMON] PTR const unsigned char 
		 -> main@line(32), NULL(0), 
 Return value:  Size  Location     Type
                  2    3[COMMON] unsigned int 
 Registers used:
		wreg, fsr1l, fsr1h, status,2, status,0
 Tracked objects:
		On entry : 
		On exit  : 
		Unchanged: 
 Data sizes:     COMMON   BANK0   BANK1   BANK2   BANK3   BANK4   BANK5   BANK6   BANK7   BANK8   BANK9  BANK10  BANK11  BANK12
      Params:         2       0       0       0       0       0       0       0       0       0       0       0       0       0
      Locals:         2       0       0       0       0       0       0       0       0       0       0       0       0       0
      Temps:          0       4       0       0       0       0       0       0       0       0       0       0       0       0
      Totals:         4       4       0       0       0       0       0       0       0       0       0       0       0       0
Total ram usage:        8 bytes
 Hardware stack levels used:    1
 Hardware stack levels required when called:    2
 This function calls:
		Nothing
 This function is called by:
		_main
 This function uses a non-reentrant model


 *************** function _strcmp *****************
 Defined at:
		line 33 in file "C:\Program Files (x86)\Microchip\xc8\v1.34\sources\common\strcmp.c"
 Parameters:    Size  Location     Type
  s1              1    wreg     PTR const unsigned char 
		 -> main@line(32), NULL(0), 
  s2              2    3[COMMON] PTR const unsigned char 
		 -> STR_6(5), STR_4(5), STR_2(6), STR_1(4), 
 Auto vars:     Size  Location     Type
  s1              1    7[COMMON] PTR const unsigned char 
		 -> main@line(32), NULL(0), 
  r               1    6[COMMON] char 
 Return value:  Size  Location     Type
                  2    3[COMMON] int 
 Registers used:
		wreg, fsr0l, fsr0h, fsr1l, fsr1h, status,2, status,0, pclath
 Tracked objects:
		On entry : 
		On exit  : 
		Unchanged: 
 Data sizes:     COMMON   BANK0   BANK1   BANK2   BANK3   BANK4   BANK5   BANK6   BANK7   BANK8   BANK9  BANK10  BANK11  BANK12
      Params:         2       0       0       0       0       0       0       0       0       0       0       0       0       0
      Locals:         2       0       0       0       0       0       0       0       0       0       0       0       0       0
      Temps:          1       0       0       0       0       0       0       0       0       0       0       0       0       0
      Totals:         5       0       0       0       0       0       0       0       0       0       0       0       0       0
Total ram usage:        5 bytes
 Hardware stack levels used:    1
 Hardware stack levels required when called:    2
 This function calls:
		Nothing
 This function is called by:
		_main
 This function uses a non-reentrant model


 *************** function _setup *****************
 Defined at:
		line 7 in file "settings.c"
 Parameters:    Size  Location     Type
		None
 Auto vars:     Size  Location     Type
		None
 Return value:  Size  Location     Type
                  2   45[None  ] int 
 Registers used:
		wreg, fsr1l, fsr1h, status,2, status,0, pclath, cstack
 Tracked objects:
		On entry : 
		On exit  : 
		Unchanged: 
 Data sizes:     COMMON   BANK0   BANK1   BANK2   BANK3   BANK4   BANK5   BANK6   BANK7   BANK8   BANK9  BANK10  BANK11  BANK12
      Params:         0       0       0       0       0       0       0       0       0       0       0       0       0       0
      Locals:         0       0       0       0       0       0       0       0       0       0       0       0       0       0
      Temps:          0       0       0       0       0       0       0       0       0       0       0       0       0       0
      Totals:         0       0       0       0       0       0       0       0       0       0       0       0       0       0
Total ram usage:        0 bytes
 Hardware stack levels used:    1
 Hardware stack levels required when called:    4
 This function calls:
		_uart_setup
 This function is called by:
		_main
 This function uses a non-reentrant model


 *************** function _uart_setup *****************
 Defined at:
		line 14 in file "uart.c"
 Parameters:    Size  Location     Type
		None
 Auto vars:     Size  Location     Type
		None
 Return value:  Size  Location     Type
                  2   13[None  ] int 
 Registers used:
		wreg, fsr1l, fsr1h, status,2, status,0, pclath, cstack
 Tracked objects:
		On entry : 
		On exit  : 
		Unchanged: 
 Data sizes:     COMMON   BANK0   BANK1   BANK2   BANK3   BANK4   BANK5   BANK6   BANK7   BANK8   BANK9  BANK10  BANK11  BANK12
      Params:         0       0       0       0       0       0       0       0       0       0       0       0       0       0
      Locals:         0       0       0       0       0       0       0       0       0       0       0       0       0       0
      Temps:          0       0       0       0       0       0       0       0       0       0       0       0       0       0
      Totals:         0       0       0       0       0       0       0       0       0       0       0       0       0       0
Total ram usage:        0 bytes
 Hardware stack levels used:    1
 Hardware stack levels required when called:    3
 This function calls:
		_memset
 This function is called by:
		_setup
 This function uses a non-reentrant model


 *************** function _memset *****************
 Defined at:
		line 8 in file "C:\Program Files (x86)\Microchip\xc8\v1.34\sources\common\memset.c"
 Parameters:    Size  Location     Type
  p1              1    wreg     PTR void 
		 -> rxbuf(32), 
  c               2    3[COMMON] int 
  n               2    5[COMMON] unsigned int 
 Auto vars:     Size  Location     Type
  p1              1    0[BANK0 ] PTR void 
		 -> rxbuf(32), 
  p               1    1[BANK0 ] PTR unsigned char 
		 -> rxbuf(32), 
 Return value:  Size  Location     Type
                  1    wreg      PTR void 
 Registers used:
		wreg, fsr1l, fsr1h, status,2, status,0
 Tracked objects:
		On entry : 
		On exit  : 
		Unchanged: 
 Data sizes:     COMMON   BANK0   BANK1   BANK2   BANK3   BANK4   BANK5   BANK6   BANK7   BANK8   BANK9  BANK10  BANK11  BANK12
      Params:         4       0       0       0       0       0       0       0       0       0       0       0       0       0
      Locals:         0       2       0       0       0       0       0       0       0       0       0       0       0       0
      Temps:          1       0       0       0       0       0       0       0       0       0       0       0       0       0
      Totals:         5       2       0       0       0       0       0       0       0       0       0       0       0       0
Total ram usage:        7 bytes
 Hardware stack levels used:    1
 Hardware stack levels required when called:    2
 This function calls:
		Nothing
 This function is called by:
		_uart_setup
 This function uses a non-reentrant model


 *************** function _right *****************
 Defined at:
		line 25 in file "rotation.c"
 Parameters:    Size  Location     Type
  mal             2   63[BANK0 ] int 
  speed           2   65[BANK0 ] int 
 Auto vars:     Size  Location     Type
  i               2    4[BANK1 ] int 
  k               2    2[BANK1 ] int 
  pluse           2    0[BANK1 ] unsigned int 
 Return value:  Size  Location     Type
		None               void
 Registers used:
		wreg, fsr1l, fsr1h, status,2, status,0, pclath, cstack
 Tracked objects:
		On entry : 
		On exit  : 
		Unchanged: 
 Data sizes:     COMMON   BANK0   BANK1   BANK2   BANK3   BANK4   BANK5   BANK6   BANK7   BANK8   BANK9  BANK10  BANK11  BANK12
      Params:         0       4       0       0       0       0       0       0       0       0       0       0       0       0
      Locals:         0       0       6       0       0       0       0       0       0       0       0       0       0       0
      Temps:          0       3       0       0       0       0       0       0       0       0       0       0       0       0
      Totals:         0       7       6       0       0       0       0       0       0       0       0       0       0       0
Total ram usage:       13 bytes
 Hardware stack levels used:    1
 Hardware stack levels required when called:    6
 This function calls:
		_step
 This function is called by:
		_main
 This function uses a non-reentrant model


 *************** function _left *****************
 Defined at:
		line 40 in file "rotation.c"
 Parameters:    Size  Location     Type
  mal             2   63[BANK0 ] int 
  speed           2   65[BANK0 ] int 
 Auto vars:     Size  Location     Type
  i               2    4[BANK1 ] int 
  k               2    2[BANK1 ] int 
  pluse           2    0[BANK1 ] unsigned int 
 Return value:  Size  Location     Type
		None               void
 Registers used:
		wreg, fsr1l, fsr1h, status,2, status,0, pclath, cstack
 Tracked objects:
		On entry : 
		On exit  : 
		Unchanged: 
 Data sizes:     COMMON   BANK0   BANK1   BANK2   BANK3   BANK4   BANK5   BANK6   BANK7   BANK8   BANK9  BANK10  BANK11  BANK12
      Params:         0       4       0       0       0       0       0       0       0       0       0       0       0       0
      Locals:         0       0       6       0       0       0       0       0       0       0       0       0       0       0
      Temps:          0       3       0       0       0       0       0       0       0       0       0       0       0       0
      Totals:         0       7       6       0       0       0       0       0       0       0       0       0       0       0
Total ram usage:       13 bytes
 Hardware stack levels used:    1
 Hardware stack levels required when called:    6
 This function calls:
		_step
 This function is called by:
		_main
 This function uses a non-reentrant model


 *************** function _step *****************
 Defined at:
		line 20 in file "rotation.c"
 Parameters:    Size  Location     Type
  deg             2   56[BANK0 ] int 
 Auto vars:     Size  Location     Type
  a               2   61[BANK0 ] unsigned int 
 Return value:  Size  Location     Type
                  2   56[BANK0 ] int 
 Registers used:
		wreg, fsr1l, fsr1h, status,2, status,0, pclath, cstack
 Tracked objects:
		On entry : 
		On exit  : 
		Unchanged: 
 Data sizes:     COMMON   BANK0   BANK1   BANK2   BANK3   BANK4   BANK5   BANK6   BANK7   BANK8   BANK9  BANK10  BANK11  BANK12
      Params:         0       2       0       0       0       0       0       0       0       0       0       0       0       0
      Locals:         0       5       0       0       0       0       0       0       0       0       0       0       0       0
      Temps:          0       0       0       0       0       0       0       0       0       0       0       0       0       0
      Totals:         0       7       0       0       0       0       0       0       0       0       0       0       0       0
Total ram usage:        7 bytes
 Hardware stack levels used:    1
 Hardware stack levels required when called:    5
 This function calls:
		___awtoft
		___ftdiv
		___fttol
		___wmul
		_ceil
 This function is called by:
		_right
		_left
 This function uses a non-reentrant model


 *************** function _ceil *****************
 Defined at:
		line 13 in file "C:\Program Files (x86)\Microchip\xc8\v1.34\sources\common\ceil.c"
 Parameters:    Size  Location     Type
  x               3   47[BANK0 ] int 
 Auto vars:     Size  Location     Type
  i               3   51[BANK0 ] int 
  expon           2   54[BANK0 ] int 
 Return value:  Size  Location     Type
                  3   47[BANK0 ] int 
 Registers used:
		wreg, fsr1l, fsr1h, status,2, status,0, pclath, cstack
 Tracked objects:
		On entry : 
		On exit  : 
		Unchanged: 
 Data sizes:     COMMON   BANK0   BANK1   BANK2   BANK3   BANK4   BANK5   BANK6   BANK7   BANK8   BANK9  BANK10  BANK11  BANK12
      Params:         0       3       0       0       0       0       0       0       0       0       0       0       0       0
      Locals:         0       5       0       0       0       0       0       0       0       0       0       0       0       0
      Temps:          0       1       0       0       0       0       0       0       0       0       0       0       0       0
      Totals:         0       9       0       0       0       0       0       0       0       0       0       0       0       0
Total ram usage:        9 bytes
 Hardware stack levels used:    1
 Hardware stack levels required when called:    4
 This function calls:
		___altoft
		___ftadd
		___ftge
		___fttol
		_frexp
 This function is called by:
		_step
 This function uses a non-reentrant model


 *************** function _frexp *****************
 Defined at:
		line 254 in file "C:\Program Files (x86)\Microchip\xc8\v1.34\sources\common\frexp.c"
 Parameters:    Size  Location     Type
  value           3    3[COMMON] int 
  eptr            1    6[COMMON] PTR int 
		 -> ceil@expon(2), 
 Auto vars:     Size  Location     Type
		None
 Return value:  Size  Location     Type
                  3    3[COMMON] PTR int 
 Registers used:
		wreg, fsr1l, fsr1h, status,2, status,0
 Tracked objects:
		On entry : 
		On exit  : 
		Unchanged: 
 Data sizes:     COMMON   BANK0   BANK1   BANK2   BANK3   BANK4   BANK5   BANK6   BANK7   BANK8   BANK9  BANK10  BANK11  BANK12
      Params:         4       0       0       0       0       0       0       0       0       0       0       0       0       0
      Locals:         0       0       0       0       0       0       0       0       0       0       0       0       0       0
      Temps:          0       2       0       0       0       0       0       0       0       0       0       0       0       0
      Totals:         4       2       0       0       0       0       0       0       0       0       0       0       0       0
Total ram usage:        6 bytes
 Hardware stack levels used:    1
 Hardware stack levels required when called:    2
 This function calls:
		Nothing
 This function is called by:
		_ceil
 This function uses a non-reentrant model


 *************** function ___fttol *****************
 Defined at:
		line 44 in file "C:\Program Files (x86)\Microchip\xc8\v1.34\sources\common\fttol.c"
 Parameters:    Size  Location     Type
  f1              3   25[BANK0 ] float 
 Auto vars:     Size  Location     Type
  lval            4   34[BANK0 ] unsigned long 
  exp1            1   38[BANK0 ] unsigned char 
  sign1           1   33[BANK0 ] unsigned char 
 Return value:  Size  Location     Type
                  4   25[BANK0 ] long 
 Registers used:
		wreg, status,2, status,0
 Tracked objects:
		On entry : 
		On exit  : 
		Unchanged: 
 Data sizes:     COMMON   BANK0   BANK1   BANK2   BANK3   BANK4   BANK5   BANK6   BANK7   BANK8   BANK9  BANK10  BANK11  BANK12
      Params:         0       4       0       0       0       0       0       0       0       0       0       0       0       0
      Locals:         0       6       0       0       0       0       0       0       0       0       0       0       0       0
      Temps:          0       4       0       0       0       0       0       0       0       0       0       0       0       0
      Totals:         0      14       0       0       0       0       0       0       0       0       0       0       0       0
Total ram usage:       14 bytes
 Hardware stack levels used:    1
 Hardware stack levels required when called:    2
 This function calls:
		Nothing
 This function is called by:
		_step
		_ceil
 This function uses a non-reentrant model


 *************** function ___ftge *****************
 Defined at:
		line 4 in file "C:\Program Files (x86)\Microchip\xc8\v1.34\sources\common\ftge.c"
 Parameters:    Size  Location     Type
  ff1             3    0[BANK0 ] float 
  ff2             3    3[BANK0 ] float 
 Auto vars:     Size  Location     Type
		None
 Return value:  Size  Location     Type
		None               void
 Registers used:
		wreg, status,2, status,0
 Tracked objects:
		On entry : 
		On exit  : 
		Unchanged: 
 Data sizes:     COMMON   BANK0   BANK1   BANK2   BANK3   BANK4   BANK5   BANK6   BANK7   BANK8   BANK9  BANK10  BANK11  BANK12
      Params:         0       6       0       0       0       0       0       0       0       0       0       0       0       0
      Locals:         0       0       0       0       0       0       0       0       0       0       0       0       0       0
      Temps:          3       0       0       0       0       0       0       0       0       0       0       0       0       0
      Totals:         3       6       0       0       0       0       0       0       0       0       0       0       0       0
Total ram usage:        9 bytes
 Hardware stack levels used:    1
 Hardware stack levels required when called:    2
 This function calls:
		Nothing
 This function is called by:
		_ceil
 This function uses a non-reentrant model


 *************** function ___ftadd *****************
 Defined at:
		line 86 in file "C:\Program Files (x86)\Microchip\xc8\v1.34\sources\common\ftadd.c"
 Parameters:    Size  Location     Type
  f1              3    3[BANK0 ] float 
  f2              3    6[BANK0 ] float 
 Auto vars:     Size  Location     Type
  exp1            1   15[BANK0 ] unsigned char 
  exp2            1   14[BANK0 ] unsigned char 
  sign            1   13[BANK0 ] unsigned char 
 Return value:  Size  Location     Type
                  3    3[BANK0 ] float 
 Registers used:
		wreg, status,2, status,0, pclath, cstack
 Tracked objects:
		On entry : 
		On exit  : 
		Unchanged: 
 Data sizes:     COMMON   BANK0   BANK1   BANK2   BANK3   BANK4   BANK5   BANK6   BANK7   BANK8   BANK9  BANK10  BANK11  BANK12
      Params:         0       6       0       0       0       0       0       0       0       0       0       0       0       0
      Locals:         0       3       0       0       0       0       0       0       0       0       0       0       0       0
      Temps:          0       4       0       0       0       0       0       0       0       0       0       0       0       0
      Totals:         0      13       0       0       0       0       0       0       0       0       0       0       0       0
Total ram usage:       13 bytes
 Hardware stack levels used:    1
 Hardware stack levels required when called:    3
 This function calls:
		___ftpack
 This function is called by:
		_ceil
 This function uses a non-reentrant model


 *************** function ___altoft *****************
 Defined at:
		line 42 in file "C:\Program Files (x86)\Microchip\xc8\v1.34\sources\common\altoft.c"
 Parameters:    Size  Location     Type
  c               4   39[BANK0 ] long 
 Auto vars:     Size  Location     Type
  sign            1   46[BANK0 ] unsigned char 
  exp             1   45[BANK0 ] unsigned char 
 Return value:  Size  Location     Type
                  3   39[BANK0 ] float 
 Registers used:
		wreg, status,2, status,0, pclath, cstack
 Tracked objects:
		On entry : 
		On exit  : 
		Unchanged: 
 Data sizes:     COMMON   BANK0   BANK1   BANK2   BANK3   BANK4   BANK5   BANK6   BANK7   BANK8   BANK9  BANK10  BANK11  BANK12
      Params:         0       4       0       0       0       0       0       0       0       0       0       0       0       0
      Locals:         0       2       0       0       0       0       0       0       0       0       0       0       0       0
      Temps:          0       2       0       0       0       0       0       0       0       0       0       0       0       0
      Totals:         0       8       0       0       0       0       0       0       0       0       0       0       0       0
Total ram usage:        8 bytes
 Hardware stack levels used:    1
 Hardware stack levels required when called:    3
 This function calls:
		___ftpack
 This function is called by:
		_ceil
 This function uses a non-reentrant model


 *************** function ___ftdiv *****************
 Defined at:
		line 56 in file "C:\Program Files (x86)\Microchip\xc8\v1.34\sources\common\ftdiv.c"
 Parameters:    Size  Location     Type
  f2              3    9[BANK0 ] float 
  f1              3   12[BANK0 ] float 
 Auto vars:     Size  Location     Type
  f3              3   20[BANK0 ] float 
  sign            1   24[BANK0 ] unsigned char 
  exp             1   23[BANK0 ] unsigned char 
  cntr            1   19[BANK0 ] unsigned char 
 Return value:  Size  Location     Type
                  3    9[BANK0 ] float 
 Registers used:
		wreg, status,2, status,0, pclath, cstack
 Tracked objects:
		On entry : 
		On exit  : 
		Unchanged: 
 Data sizes:     COMMON   BANK0   BANK1   BANK2   BANK3   BANK4   BANK5   BANK6   BANK7   BANK8   BANK9  BANK10  BANK11  BANK12
      Params:         0       6       0       0       0       0       0       0       0       0       0       0       0       0
      Locals:         0       6       0       0       0       0       0       0       0       0       0       0       0       0
      Temps:          0       4       0       0       0       0       0       0       0       0       0       0       0       0
      Totals:         0      16       0       0       0       0       0       0       0       0       0       0       0       0
Total ram usage:       16 bytes
 Hardware stack levels used:    1
 Hardware stack levels required when called:    3
 This function calls:
		___ftpack
 This function is called by:
		_step
 This function uses a non-reentrant model


 *************** function ___awtoft *****************
 Defined at:
		line 32 in file "C:\Program Files (x86)\Microchip\xc8\v1.34\sources\common\awtoft.c"
 Parameters:    Size  Location     Type
  c               2    3[BANK0 ] int 
 Auto vars:     Size  Location     Type
  sign            1    8[BANK0 ] unsigned char 
 Return value:  Size  Location     Type
                  3    3[BANK0 ] float 
 Registers used:
		wreg, status,2, status,0, pclath, cstack
 Tracked objects:
		On entry : 
		On exit  : 
		Unchanged: 
 Data sizes:     COMMON   BANK0   BANK1   BANK2   BANK3   BANK4   BANK5   BANK6   BANK7   BANK8   BANK9  BANK10  BANK11  BANK12
      Params:         0       3       0       0       0       0       0       0       0       0       0       0       0       0
      Locals:         0       1       0       0       0       0       0       0       0       0       0       0       0       0
      Temps:          0       2       0       0       0       0       0       0       0       0       0       0       0       0
      Totals:         0       6       0       0       0       0       0       0       0       0       0       0       0       0
Total ram usage:        6 bytes
 Hardware stack levels used:    1
 Hardware stack levels required when called:    3
 This function calls:
		___ftpack
 This function is called by:
		_step
 This function uses a non-reentrant model


 *************** function ___ftpack *****************
 Defined at:
		line 62 in file "C:\Program Files (x86)\Microchip\xc8\v1.34\sources\common\float.c"
 Parameters:    Size  Location     Type
  arg             3    3[COMMON] unsigned um
  exp             1    6[COMMON] unsigned char 
  sign            1    7[COMMON] unsigned char 
 Auto vars:     Size  Location     Type
		None
 Return value:  Size  Location     Type
                  3    3[COMMON] float 
 Registers used:
		wreg, status,2, status,0
 Tracked objects:
		On entry : 
		On exit  : 
		Unchanged: 
 Data sizes:     COMMON   BANK0   BANK1   BANK2   BANK3   BANK4   BANK5   BANK6   BANK7   BANK8   BANK9  BANK10  BANK11  BANK12
      Params:         5       0       0       0       0       0       0       0       0       0       0       0       0       0
      Locals:         0       0       0       0       0       0       0       0       0       0       0       0       0       0
      Temps:          0       3       0       0       0       0       0       0       0       0       0       0       0       0
      Totals:         5       3       0       0       0       0       0       0       0       0       0       0       0       0
Total ram usage:        8 bytes
 Hardware stack levels used:    1
 Hardware stack levels required when called:    2
 This function calls:
		Nothing
 This function is called by:
		___altoft
		___awtoft
		___ftadd
		___ftdiv
 This function uses a non-reentrant model


 *************** function _atoi *****************
 Defined at:
		line 5 in file "C:\Program Files (x86)\Microchip\xc8\v1.34\sources\common\atoi.c"
 Parameters:    Size  Location     Type
  s               1    wreg     PTR const unsigned char 
		 -> main@line(32), NULL(0), 
 Auto vars:     Size  Location     Type
  s               1    9[BANK0 ] PTR const unsigned char 
		 -> main@line(32), NULL(0), 
  a               2    7[BANK0 ] int 
  sign            1    6[BANK0 ] unsigned char 
 Return value:  Size  Location     Type
                  2    2[BANK0 ] int 
 Registers used:
		wreg, fsr1l, fsr1h, status,2, status,0, pclath, cstack
 Tracked objects:
		On entry : 
		On exit  : 
		Unchanged: 
 Data sizes:     COMMON   BANK0   BANK1   BANK2   BANK3   BANK4   BANK5   BANK6   BANK7   BANK8   BANK9  BANK10  BANK11  BANK12
      Params:         0       2       0       0       0       0       0       0       0       0       0       0       0       0
      Locals:         0       4       0       0       0       0       0       0       0       0       0       0       0       0
      Temps:          0       2       0       0       0       0       0       0       0       0       0       0       0       0
      Totals:         0       8       0       0       0       0       0       0       0       0       0       0       0       0
Total ram usage:        8 bytes
 Hardware stack levels used:    1
 Hardware stack levels required when called:    3
 This function calls:
		___wmul
		_isdigit
 This function is called by:
		_main
 This function uses a non-reentrant model


 *************** function _isdigit *****************
 Defined at:
		line 8 in file "C:\Program Files (x86)\Microchip\xc8\v1.34\sources\common\isdigit.c"
 Parameters:    Size  Location     Type
  c               1    wreg     unsigned char 
 Auto vars:     Size  Location     Type
  c               1    4[COMMON] unsigned char 
 Return value:  Size  Location     Type
		None               void
 Registers used:
		wreg, status,2, status,0
 Tracked objects:
		On entry : 
		On exit  : 
		Unchanged: 
 Data sizes:     COMMON   BANK0   BANK1   BANK2   BANK3   BANK4   BANK5   BANK6   BANK7   BANK8   BANK9  BANK10  BANK11  BANK12
      Params:         0       0       0       0       0       0       0       0       0       0       0       0       0       0
      Locals:         2       0       0       0       0       0       0       0       0       0       0       0       0       0
      Temps:          0       0       0       0       0       0       0       0       0       0       0       0       0       0
      Totals:         2       0       0       0       0       0       0       0       0       0       0       0       0       0
Total ram usage:        2 bytes
 Hardware stack levels used:    1
 Hardware stack levels required when called:    2
 This function calls:
		Nothing
 This function is called by:
		_atoi
 This function uses a non-reentrant model


 *************** function ___wmul *****************
 Defined at:
		line 15 in file "C:\Program Files (x86)\Microchip\xc8\v1.34\sources\common\Umul16.c"
 Parameters:    Size  Location     Type
  multiplier      2    3[COMMON] unsigned int 
  multiplicand    2    5[COMMON] unsigned int 
 Auto vars:     Size  Location     Type
  product         2    0[BANK0 ] unsigned int 
 Return value:  Size  Location     Type
                  2    3[COMMON] unsigned int 
 Registers used:
		wreg, status,2, status,0
 Tracked objects:
		On entry : 
		On exit  : 
		Unchanged: 
 Data sizes:     COMMON   BANK0   BANK1   BANK2   BANK3   BANK4   BANK5   BANK6   BANK7   BANK8   BANK9  BANK10  BANK11  BANK12
      Params:         4       0       0       0       0       0       0       0       0       0       0       0       0       0
      Locals:         0       2       0       0       0       0       0       0       0       0       0       0       0       0
      Temps:          0       0       0       0       0       0       0       0       0       0       0       0       0       0
      Totals:         4       2       0       0       0       0       0       0       0       0       0       0       0       0
Total ram usage:        6 bytes
 Hardware stack levels used:    1
 Hardware stack levels required when called:    2
 This function calls:
		Nothing
 This function is called by:
		_step
		_atoi
 This function uses a non-reentrant model


 *************** function _isr *****************
 Defined at:
		line 4 in file "interrupt.c"
 Parameters:    Size  Location     Type
		None
 Auto vars:     Size  Location     Type
		None
 Return value:  Size  Location     Type
		None               void
 Registers used:
		wreg, fsr1l, fsr1h, status,2, status,0, pclath, cstack
 Tracked objects:
		On entry : 
		On exit  : 
		Unchanged: 
 Data sizes:     COMMON   BANK0   BANK1   BANK2   BANK3   BANK4   BANK5   BANK6   BANK7   BANK8   BANK9  BANK10  BANK11  BANK12
      Params:         0       0       0       0       0       0       0       0       0       0       0       0       0       0
      Locals:         0       0       0       0       0       0       0       0       0       0       0       0       0       0
      Temps:          1       0       0       0       0       0       0       0       0       0       0       0       0       0
      Totals:         1       0       0       0       0       0       0       0       0       0       0       0       0       0
Total ram usage:        1 bytes
 Hardware stack levels used:    1
 Hardware stack levels required when called:    1
 This function calls:
		_receive_isr
 This function is called by:
		Interrupt level 1
 This function uses a non-reentrant model


 *************** function _receive_isr *****************
 Defined at:
		line 120 in file "uart.c"
 Parameters:    Size  Location     Type
		None
 Auto vars:     Size  Location     Type
  temp            1    1[COMMON] unsigned char 
 Return value:  Size  Location     Type
		None               void
 Registers used:
		wreg, fsr1l, fsr1h, status,2, status,0
 Tracked objects:
		On entry : 
		On exit  : 
		Unchanged: 
 Data sizes:     COMMON   BANK0   BANK1   BANK2   BANK3   BANK4   BANK5   BANK6   BANK7   BANK8   BANK9  BANK10  BANK11  BANK12
      Params:         0       0       0       0       0       0       0       0       0       0       0       0       0       0
      Locals:         1       0       0       0       0       0       0       0       0       0       0       0       0       0
      Temps:          1       0       0       0       0       0       0       0       0       0       0       0       0       0
      Totals:         2       0       0       0       0       0       0       0       0       0       0       0       0       0
Total ram usage:        2 bytes
 Hardware stack levels used:    1
 This function calls:
		Nothing
 This function is called by:
		_isr
 This function uses a non-reentrant model



MODULE INFORMATION

Module		Function		Class		Link	Load	Size
C:\Program Files (x86)\Microchip\xc8\v1.34\sources\common\ftge.c
		___ftge        		CODE           	0FC4	0000	61

C:\Program Files (x86)\Microchip\xc8\v1.34\sources\common\ftge.c estimated size: 61

settings.c
		_setup         		CODE           	0E0B	0000	26

settings.c estimated size: 26

uart.c
		_uart_gets     		CODE           	0687	0000	74
		_receive_isr   		CODE           	0E93	0000	32
		_uart_send     		CODE           	0DF5	0000	9
		_uart_setup    		CODE           	0E3E	0000	28
		_find          		CODE           	0F5C	0000	51

uart.c estimated size: 194

C:\Program Files (x86)\Microchip\xc8\v1.34\sources\common\float.c
		___ftpack      		CODE           	0620	0000	104

C:\Program Files (x86)\Microchip\xc8\v1.34\sources\common\float.c estimated size: 104

C:\Program Files (x86)\Microchip\xc8\v1.34\sources\common\atoi.c
		_atoi          		CODE           	05B5	0000	108

C:\Program Files (x86)\Microchip\xc8\v1.34\sources\common\atoi.c estimated size: 108

C:\Program Files (x86)\Microchip\xc8\v1.34\sources\common\strtok.c
		_strtok        		CODE           	06D0	0000	74

C:\Program Files (x86)\Microchip\xc8\v1.34\sources\common\strtok.c estimated size: 74

newmain.c
		_main          		CODE           	0034	0000	373

newmain.c estimated size: 373

C:\Program Files (x86)\Microchip\xc8\v1.34\sources\common\awtoft.c
		___awtoft      		CODE           	07DD	0000	35

C:\Program Files (x86)\Microchip\xc8\v1.34\sources\common\awtoft.c estimated size: 35

C:\Program Files (x86)\Microchip\xc8\v1.34\sources\common\frexp.c
		_frexp         		CODE           	0F8E	0000	55

C:\Program Files (x86)\Microchip\xc8\v1.34\sources\common\frexp.c estimated size: 55

C:\Program Files (x86)\Microchip\xc8\v1.34\sources\common\strcspn.c
		_strcspn       		CODE           	0EFE	0000	48

C:\Program Files (x86)\Microchip\xc8\v1.34\sources\common\strcspn.c estimated size: 48

C:\Program Files (x86)\Microchip\xc8\v1.34\sources\common\isdigit.c
		_isdigit       		CODE           	0DFD	0000	15

C:\Program Files (x86)\Microchip\xc8\v1.34\sources\common\isdigit.c estimated size: 15

interrupt.c
		_isr           		CODE           	0004	0000	16

interrupt.c estimated size: 16

C:\Program Files (x86)\Microchip\xc8\v1.34\sources\common\strlen.c
		_strlen        		CODE           	0EB2	0000	38

C:\Program Files (x86)\Microchip\xc8\v1.34\sources\common\strlen.c estimated size: 38

C:\Program Files (x86)\Microchip\xc8\v1.34\sources\common\ftdiv.c
		___ftdiv       		CODE           	0400	0000	170

C:\Program Files (x86)\Microchip\xc8\v1.34\sources\common\ftdiv.c estimated size: 170

shared
		main@tokens    		STRCODE        	1000	0000	4
		__initializatio		CODE           	0015	0000	29

shared estimated size: 33

C:\Program Files (x86)\Microchip\xc8\v1.34\sources\common\strcmp.c
		_strcmp        		CODE           	0ED7	0000	40

C:\Program Files (x86)\Microchip\xc8\v1.34\sources\common\strcmp.c estimated size: 40

C:\Program Files (x86)\Microchip\xc8\v1.34\sources\common\strchr.c
		_strchr        		CODE           	0E24	0000	27

C:\Program Files (x86)\Microchip\xc8\v1.34\sources\common\strchr.c estimated size: 27

C:\Program Files (x86)\Microchip\xc8\v1.34\sources\common\altoft.c
		___altoft      		CODE           	07A0	0000	62

C:\Program Files (x86)\Microchip\xc8\v1.34\sources\common\altoft.c estimated size: 62

C:\Program Files (x86)\Microchip\xc8\v1.34\sources\common\ceil.c
		_ceil          		CODE           	0530	0000	134

C:\Program Files (x86)\Microchip\xc8\v1.34\sources\common\ceil.c estimated size: 134

C:\Program Files (x86)\Microchip\xc8\v1.34\sources\common\memset.c
		_memset        		CODE           	0E59	0000	29

C:\Program Files (x86)\Microchip\xc8\v1.34\sources\common\memset.c estimated size: 29

C:\Program Files (x86)\Microchip\xc8\v1.34\sources\common\fttol.c
		___fttol       		CODE           	04A9	0000	136

C:\Program Files (x86)\Microchip\xc8\v1.34\sources\common\fttol.c estimated size: 136

C:\Program Files (x86)\Microchip\xc8\v1.34\sources\common\strspn.c
		_strspn        		CODE           	0F2D	0000	48

C:\Program Files (x86)\Microchip\xc8\v1.34\sources\common\strspn.c estimated size: 48

C:\Program Files (x86)\Microchip\xc8\v1.34\sources\common\Umul16.c
		___wmul        		CODE           	0E75	0000	31

C:\Program Files (x86)\Microchip\xc8\v1.34\sources\common\Umul16.c estimated size: 31

rotation.c
		_left          		CODE           	034F	0000	178
		_step          		CODE           	0719	0000	72
		_right         		CODE           	029E	0000	178

rotation.c estimated size: 428

C:\Program Files (x86)\Microchip\xc8\v1.34\sources\common\ftadd.c
		___ftadd       		CODE           	01A8	0000	247

C:\Program Files (x86)\Microchip\xc8\v1.34\sources\common\ftadd.c estimated size: 247

